target datalayout = "e-m:e-p270:32:32-p271:32:32-p272:64:64-i64:64-i128:128-f80:128-n8:16:32:64-S128"
target triple = "x86_64-pc-linux-gnu"

%struct.Vec_Int_t_ = type { i32, i32, ptr }
%struct.Vec_Ptr_t_ = type { i32, i32, ptr }
%struct.Gia_Man2Min_t_ = type { ptr, [2 x i32], [2 x ptr], [2 x ptr], ptr, ptr, ptr, ptr, ptr, i32, i32, i32, i32, i32, i32, i32 }
%struct.satoko_opts = type { i64, i64, double, double, i32, i32, i32, i32, i32, i32, i32, float, double, float, i32, i64, i32, i32, float, i8, i8 }
%struct.Vec_Wrd_t_ = type { i32, i32, ptr }

; Function Attrs: inlinehint nounwind uwtable
define internal ptr @Vec_PtrAlloc(i32 noundef %0) #3 {
  %2 = alloca i32, align 4
  %3 = alloca ptr, align 8
  store i32 %0, ptr %2, align 4, !tbaa !20
  call void @llvm.lifetime.start.p0(i64 8, ptr %3) #11
  %4 = call noalias ptr @malloc(i64 noundef 16) #13
  store ptr %4, ptr %3, align 8, !tbaa !27
  %5 = load i32, ptr %2, align 4, !tbaa !20
  %6 = icmp sgt i32 %5, 0
  br i1 %6, label %7, label %11

7:                                                ; preds = %1
  %8 = load i32, ptr %2, align 4, !tbaa !20
  %9 = icmp slt i32 %8, 8
  br i1 %9, label %10, label %11

10:                                               ; preds = %7
  store i32 8, ptr %2, align 4, !tbaa !20
  br label %11

11:                                               ; preds = %10, %7, %1
  %12 = load ptr, ptr %3, align 8, !tbaa !27
  %13 = getelementptr inbounds nuw %struct.Vec_Ptr_t_, ptr %12, i32 0, i32 1
  store i32 0, ptr %13, align 4, !tbaa !28
  %14 = load i32, ptr %2, align 4, !tbaa !20
  %15 = load ptr, ptr %3, align 8, !tbaa !27
  %16 = getelementptr inbounds nuw %struct.Vec_Ptr_t_, ptr %15, i32 0, i32 0
  store i32 %14, ptr %16, align 8, !tbaa !30
  %17 = load ptr, ptr %3, align 8, !tbaa !27
  %18 = getelementptr inbounds nuw %struct.Vec_Ptr_t_, ptr %17, i32 0, i32 0
  %19 = load i32, ptr %18, align 8, !tbaa !30
  %20 = icmp ne i32 %19, 0
  br i1 %20, label %21, label %28

21:                                               ; preds = %11
  %22 = load ptr, ptr %3, align 8, !tbaa !27
  %23 = getelementptr inbounds nuw %struct.Vec_Ptr_t_, ptr %22, i32 0, i32 0
  %24 = load i32, ptr %23, align 8, !tbaa !30
  %25 = sext i32 %24 to i64
  %26 = mul i64 8, %25
  %27 = call noalias ptr @malloc(i64 noundef %26) #13
  br label %29

28:                                               ; preds = %11
  br label %29

29:                                               ; preds = %28, %21
  %30 = phi ptr [ %27, %21 ], [ null, %28 ]
  %31 = load ptr, ptr %3, align 8, !tbaa !27
  %32 = getelementptr inbounds nuw %struct.Vec_Ptr_t_, ptr %31, i32 0, i32 2
  store ptr %30, ptr %32, align 8, !tbaa !31
  %33 = load ptr, ptr %3, align 8, !tbaa !27
  call void @llvm.lifetime.end.p0(i64 8, ptr %3) #11
  ret ptr %33
}

; Function Attrs: inlinehint nounwind uwtable
define internal ptr @Vec_WrdAlloc(i32 noundef %0) #3 {
  %2 = alloca i32, align 4
  %3 = alloca ptr, align 8
  store i32 %0, ptr %2, align 4, !tbaa !20
  call void @llvm.lifetime.start.p0(i64 8, ptr %3) #11
  %4 = call noalias ptr @malloc(i64 noundef 16) #13
  store ptr %4, ptr %3, align 8, !tbaa !96
  %5 = load i32, ptr %2, align 4, !tbaa !20
  %6 = icmp sgt i32 %5, 0
  br i1 %6, label %7, label %11

7:                                                ; preds = %1
  %8 = load i32, ptr %2, align 4, !tbaa !20
  %9 = icmp slt i32 %8, 16
  br i1 %9, label %10, label %11

10:                                               ; preds = %7
  store i32 16, ptr %2, align 4, !tbaa !20
  br label %11

11:                                               ; preds = %10, %7, %1
  %12 = load ptr, ptr %3, align 8, !tbaa !96
  %13 = getelementptr inbounds nuw %struct.Vec_Wrd_t_, ptr %12, i32 0, i32 1
  store i32 0, ptr %13, align 4, !tbaa !97
  %14 = load i32, ptr %2, align 4, !tbaa !20
  %15 = load ptr, ptr %3, align 8, !tbaa !96
  %16 = getelementptr inbounds nuw %struct.Vec_Wrd_t_, ptr %15, i32 0, i32 0
  store i32 %14, ptr %16, align 8, !tbaa !100
  %17 = load ptr, ptr %3, align 8, !tbaa !96
  %18 = getelementptr inbounds nuw %struct.Vec_Wrd_t_, ptr %17, i32 0, i32 0
  %19 = load i32, ptr %18, align 8, !tbaa !100
  %20 = icmp ne i32 %19, 0
  br i1 %20, label %21, label %28

21:                                               ; preds = %11
  %22 = load ptr, ptr %3, align 8, !tbaa !96
  %23 = getelementptr inbounds nuw %struct.Vec_Wrd_t_, ptr %22, i32 0, i32 0
  %24 = load i32, ptr %23, align 8, !tbaa !100
  %25 = sext i32 %24 to i64
  %26 = mul i64 8, %25
  %27 = call noalias ptr @malloc(i64 noundef %26) #13
  br label %29

28:                                               ; preds = %11
  br label %29

29:                                               ; preds = %28, %21
  %30 = phi ptr [ %27, %21 ], [ null, %28 ]
  %31 = load ptr, ptr %3, align 8, !tbaa !96
  %32 = getelementptr inbounds nuw %struct.Vec_Wrd_t_, ptr %31, i32 0, i32 2
  store ptr %30, ptr %32, align 8, !tbaa !101
  %33 = load ptr, ptr %3, align 8, !tbaa !96
  call void @llvm.lifetime.end.p0(i64 8, ptr %3) #11
  ret ptr %33
}

; Function Attrs: inlinehint nounwind uwtable
define internal ptr @Vec_IntAlloc(i32 noundef %0) #3 {
  %2 = alloca i32, align 4
  %3 = alloca ptr, align 8
  store i32 %0, ptr %2, align 4, !tbaa !20
  call void @llvm.lifetime.start.p0(i64 8, ptr %3) #11
  %4 = call noalias ptr @malloc(i64 noundef 16) #13
  store ptr %4, ptr %3, align 8, !tbaa !15
  %5 = load i32, ptr %2, align 4, !tbaa !20
  %6 = icmp sgt i32 %5, 0
  br i1 %6, label %7, label %11

7:                                                ; preds = %1
  %8 = load i32, ptr %2, align 4, !tbaa !20
  %9 = icmp slt i32 %8, 16
  br i1 %9, label %10, label %11

10:                                               ; preds = %7
  store i32 16, ptr %2, align 4, !tbaa !20
  br label %11

11:                                               ; preds = %10, %7, %1
  %12 = load ptr, ptr %3, align 8, !tbaa !15
  %13 = getelementptr inbounds nuw %struct.Vec_Int_t_, ptr %12, i32 0, i32 1
  store i32 0, ptr %13, align 4, !tbaa !22
  %14 = load i32, ptr %2, align 4, !tbaa !20
  %15 = load ptr, ptr %3, align 8, !tbaa !15
  %16 = getelementptr inbounds nuw %struct.Vec_Int_t_, ptr %15, i32 0, i32 0
  store i32 %14, ptr %16, align 8, !tbaa !25
  %17 = load ptr, ptr %3, align 8, !tbaa !15
  %18 = getelementptr inbounds nuw %struct.Vec_Int_t_, ptr %17, i32 0, i32 0
  %19 = load i32, ptr %18, align 8, !tbaa !25
  %20 = icmp ne i32 %19, 0
  br i1 %20, label %21, label %28

21:                                               ; preds = %11
  %22 = load ptr, ptr %3, align 8, !tbaa !15
  %23 = getelementptr inbounds nuw %struct.Vec_Int_t_, ptr %22, i32 0, i32 0
  %24 = load i32, ptr %23, align 8, !tbaa !25
  %25 = sext i32 %24 to i64
  %26 = mul i64 4, %25
  %27 = call noalias ptr @malloc(i64 noundef %26) #13
  br label %29

28:                                               ; preds = %11
  br label %29

29:                                               ; preds = %28, %21
  %30 = phi ptr [ %27, %21 ], [ null, %28 ]
  %31 = load ptr, ptr %3, align 8, !tbaa !15
  %32 = getelementptr inbounds nuw %struct.Vec_Int_t_, ptr %31, i32 0, i32 2
  store ptr %30, ptr %32, align 8, !tbaa !26
  %33 = load ptr, ptr %3, align 8, !tbaa !15
  call void @llvm.lifetime.end.p0(i64 8, ptr %3) #11
  ret ptr %33
}

; Function Attrs: nounwind uwtable
define ptr @Gia_Man2SuppStart(ptr noundef %0) #0 {
  %2 = alloca ptr, align 8
  %3 = alloca ptr, align 8
  store ptr %0, ptr %2, align 8, !tbaa !3
  call void @llvm.lifetime.start.p0(i64 8, ptr %3) #11
  %4 = call noalias ptr @calloc(i64 noundef 1, i64 noundef 120) #12
  store ptr %4, ptr %3, align 8, !tbaa !82
  %5 = load ptr, ptr %2, align 8, !tbaa !3
  %6 = load ptr, ptr %3, align 8, !tbaa !82
  %7 = getelementptr inbounds nuw %struct.Gia_Man2Min_t_, ptr %6, i32 0, i32 0
  store ptr %5, ptr %7, align 8, !tbaa !84
  %8 = call ptr @Vec_IntAlloc(i32 noundef 512)
  %9 = load ptr, ptr %3, align 8, !tbaa !82
  %10 = getelementptr inbounds nuw %struct.Gia_Man2Min_t_, ptr %9, i32 0, i32 2
  %11 = getelementptr inbounds [2 x ptr], ptr %10, i64 0, i64 0
  store ptr %8, ptr %11, align 8, !tbaa !15
  %12 = call ptr @Vec_IntAlloc(i32 noundef 512)
  %13 = load ptr, ptr %3, align 8, !tbaa !82
  %14 = getelementptr inbounds nuw %struct.Gia_Man2Min_t_, ptr %13, i32 0, i32 2
  %15 = getelementptr inbounds [2 x ptr], ptr %14, i64 0, i64 1
  store ptr %12, ptr %15, align 8, !tbaa !15
  %16 = call ptr @Vec_IntAlloc(i32 noundef 512)
  %17 = load ptr, ptr %3, align 8, !tbaa !82
  %18 = getelementptr inbounds nuw %struct.Gia_Man2Min_t_, ptr %17, i32 0, i32 3
  %19 = getelementptr inbounds [2 x ptr], ptr %18, i64 0, i64 0
  store ptr %16, ptr %19, align 8, !tbaa !15
  %20 = call ptr @Vec_IntAlloc(i32 noundef 512)
  %21 = load ptr, ptr %3, align 8, !tbaa !82
  %22 = getelementptr inbounds nuw %struct.Gia_Man2Min_t_, ptr %21, i32 0, i32 3
  %23 = getelementptr inbounds [2 x ptr], ptr %22, i64 0, i64 1
  store ptr %20, ptr %23, align 8, !tbaa !15
  %24 = call ptr @satoko_create()
  %25 = load ptr, ptr %3, align 8, !tbaa !82
  %26 = getelementptr inbounds nuw %struct.Gia_Man2Min_t_, ptr %25, i32 0, i32 4
  store ptr %24, ptr %26, align 8, !tbaa !87
  %27 = call ptr @Vec_WrdAlloc(i32 noundef 1000)
  %28 = load ptr, ptr %3, align 8, !tbaa !82
  %29 = getelementptr inbounds nuw %struct.Gia_Man2Min_t_, ptr %28, i32 0, i32 5
  store ptr %27, ptr %29, align 8, !tbaa !88
  %30 = call ptr @Vec_PtrAlloc(i32 noundef 1000)
  %31 = load ptr, ptr %3, align 8, !tbaa !82
  %32 = getelementptr inbounds nuw %struct.Gia_Man2Min_t_, ptr %31, i32 0, i32 6
  store ptr %30, ptr %32, align 8, !tbaa !89
  %33 = call ptr @Vec_PtrAlloc(i32 noundef 100)
  %34 = load ptr, ptr %3, align 8, !tbaa !82
  %35 = getelementptr inbounds nuw %struct.Gia_Man2Min_t_, ptr %34, i32 0, i32 7
  store ptr %33, ptr %35, align 8, !tbaa !90
  %36 = call ptr @Vec_IntAlloc(i32 noundef 100)
  %37 = load ptr, ptr %3, align 8, !tbaa !82
  %38 = getelementptr inbounds nuw %struct.Gia_Man2Min_t_, ptr %37, i32 0, i32 8
  store ptr %36, ptr %38, align 8, !tbaa !91
  %39 = load ptr, ptr %3, align 8, !tbaa !82
  %40 = getelementptr inbounds nuw %struct.Gia_Man2Min_t_, ptr %39, i32 0, i32 10
  store i32 1, ptr %40, align 4, !tbaa !92
  %41 = load ptr, ptr %3, align 8, !tbaa !82
  %42 = getelementptr inbounds nuw %struct.Gia_Man2Min_t_, ptr %41, i32 0, i32 4
  %43 = load ptr, ptr %42, align 8, !tbaa !87
  %44 = call ptr @satoko_options(ptr noundef %43)
  %45 = getelementptr inbounds nuw %struct.satoko_opts, ptr %44, i32 0, i32 11
  store float 0.000000e+00, ptr %45, align 4, !tbaa !93
  %46 = load ptr, ptr %3, align 8, !tbaa !82
  call void @llvm.lifetime.end.p0(i64 8, ptr %3) #11
  ret ptr %46
}