; Function Attrs: nounwind uwtable
define noalias noundef ptr @Gia_Man2SuppStart(ptr noundef %0) local_unnamed_addr #0 {
  %2 = tail call noalias dereferenceable_or_null(120) ptr @calloc(i64 noundef 1, i64 noundef 120) #15
  store ptr %0, ptr %2, align 8, !tbaa !71
  %3 = tail call noalias dereferenceable_or_null(16) ptr @malloc(i64 noundef 16) #16
  %4 = getelementptr inbounds nuw i8, ptr %3, i64 4
  store i32 0, ptr %4, align 4, !tbaa !12
  store i32 512, ptr %3, align 8, !tbaa !16
  %5 = tail call noalias dereferenceable_or_null(2048) ptr @malloc(i64 noundef 2048) #16
  %6 = getelementptr inbounds nuw i8, ptr %3, i64 8
  store ptr %5, ptr %6, align 8, !tbaa !17
  %7 = getelementptr inbounds nuw i8, ptr %2, i64 16
  store ptr %3, ptr %7, align 8, !tbaa !18
  %8 = tail call noalias dereferenceable_or_null(16) ptr @malloc(i64 noundef 16) #16
  %9 = getelementptr inbounds nuw i8, ptr %8, i64 4
  store i32 0, ptr %9, align 4, !tbaa !12
  store i32 512, ptr %8, align 8, !tbaa !16
  %10 = tail call noalias dereferenceable_or_null(2048) ptr @malloc(i64 noundef 2048) #16
  %11 = getelementptr inbounds nuw i8, ptr %8, i64 8
  store ptr %10, ptr %11, align 8, !tbaa !17
  %12 = getelementptr inbounds nuw i8, ptr %2, i64 24
  store ptr %8, ptr %12, align 8, !tbaa !18
  %13 = tail call noalias dereferenceable_or_null(16) ptr @malloc(i64 noundef 16) #16
  %14 = getelementptr inbounds nuw i8, ptr %13, i64 4
  store i32 0, ptr %14, align 4, !tbaa !12
  store i32 512, ptr %13, align 8, !tbaa !16
  %15 = tail call noalias dereferenceable_or_null(2048) ptr @malloc(i64 noundef 2048) #16
  %16 = getelementptr inbounds nuw i8, ptr %13, i64 8
  store ptr %15, ptr %16, align 8, !tbaa !17
  %17 = getelementptr inbounds nuw i8, ptr %2, i64 32
  store ptr %13, ptr %17, align 8, !tbaa !18
  %18 = tail call noalias dereferenceable_or_null(16) ptr @malloc(i64 noundef 16) #16
  %19 = getelementptr inbounds nuw i8, ptr %18, i64 4
  store i32 0, ptr %19, align 4, !tbaa !12
  store i32 512, ptr %18, align 8, !tbaa !16
  %20 = tail call noalias dereferenceable_or_null(2048) ptr @malloc(i64 noundef 2048) #16
  %21 = getelementptr inbounds nuw i8, ptr %18, i64 8
  store ptr %20, ptr %21, align 8, !tbaa !17
  %22 = getelementptr inbounds nuw i8, ptr %2, i64 40
  store ptr %18, ptr %22, align 8, !tbaa !18
  %23 = tail call ptr @satoko_create() #17
  %24 = getelementptr inbounds nuw i8, ptr %2, i64 48
  store ptr %23, ptr %24, align 8, !tbaa !74
  %25 = tail call noalias dereferenceable_or_null(16) ptr @malloc(i64 noundef 16) #16
  %26 = getelementptr inbounds nuw i8, ptr %25, i64 4
  store i32 0, ptr %26, align 4, !tbaa !75
  store i32 1000, ptr %25, align 8, !tbaa !78
  %27 = tail call noalias dereferenceable_or_null(8000) ptr @malloc(i64 noundef 8000) #16
  %28 = getelementptr inbounds nuw i8, ptr %25, i64 8
  store ptr %27, ptr %28, align 8, !tbaa !79
  %29 = getelementptr inbounds nuw i8, ptr %2, i64 56
  store ptr %25, ptr %29, align 8, !tbaa !80
  %30 = tail call noalias dereferenceable_or_null(16) ptr @malloc(i64 noundef 16) #16
  %31 = getelementptr inbounds nuw i8, ptr %30, i64 4
  store i32 0, ptr %31, align 4, !tbaa !21
  store i32 1000, ptr %30, align 8, !tbaa !23
  %32 = tail call noalias dereferenceable_or_null(8000) ptr @malloc(i64 noundef 8000) #16
  %33 = getelementptr inbounds nuw i8, ptr %30, i64 8
  store ptr %32, ptr %33, align 8, !tbaa !24
  %34 = getelementptr inbounds nuw i8, ptr %2, i64 64
  store ptr %30, ptr %34, align 8, !tbaa !81
  %35 = tail call noalias dereferenceable_or_null(16) ptr @malloc(i64 noundef 16) #16
  %36 = getelementptr inbounds nuw i8, ptr %35, i64 4
  store i32 0, ptr %36, align 4, !tbaa !21
  store i32 100, ptr %35, align 8, !tbaa !23
  %37 = tail call noalias dereferenceable_or_null(800) ptr @malloc(i64 noundef 800) #16
  %38 = getelementptr inbounds nuw i8, ptr %35, i64 8
  store ptr %37, ptr %38, align 8, !tbaa !24
  %39 = getelementptr inbounds nuw i8, ptr %2, i64 72
  store ptr %35, ptr %39, align 8, !tbaa !82
  %40 = tail call noalias dereferenceable_or_null(16) ptr @malloc(i64 noundef 16) #16
  %41 = getelementptr inbounds nuw i8, ptr %40, i64 4
  store i32 0, ptr %41, align 4, !tbaa !12
  store i32 100, ptr %40, align 8, !tbaa !16
  %42 = tail call noalias dereferenceable_or_null(400) ptr @malloc(i64 noundef 400) #16
  %43 = getelementptr inbounds nuw i8, ptr %40, i64 8
  store ptr %42, ptr %43, align 8, !tbaa !17
  %44 = getelementptr inbounds nuw i8, ptr %2, i64 80
  store ptr %40, ptr %44, align 8, !tbaa !83
  %45 = getelementptr inbounds nuw i8, ptr %2, i64 92
  store i32 1, ptr %45, align 4, !tbaa !84
  %46 = tail call ptr @satoko_options(ptr noundef %23) #17
  %47 = getelementptr inbounds nuw i8, ptr %46, i64 60
  store float 0.000000e+00, ptr %47, align 4, !tbaa !85
  ret ptr %2
}